target datalayout = "e-m:e-p270:32:32-p271:32:32-p272:64:64-i64:64-i128:128-f80:128-n8:16:32:64-S128"
target triple = "x86_64-pc-linux-gnu"

%struct.Object = type { ptr, ptr, ptr, i32, ptr }
%struct.QTailQLink = type { ptr, ptr }
%struct.AHCIDevice = type { %struct.IDEDMA, %struct.IDEBus, i32, i32, i32, %struct.AHCIPortRegs, ptr, ptr, ptr, ptr, i8, i32, i8, ptr, [32 x %struct.NCQTransferState], %struct.MemReentrancyGuard }
%struct.IDEDMA = type { ptr, %struct.QEMUIOVector, ptr }
%struct.QEMUIOVector = type { ptr, i32, %union.anon.3 }
%union.anon.3 = type { %struct.anon.4 }
%struct.anon.4 = type { i32, %struct.iovec }
%struct.iovec = type { ptr, i64 }
%struct.IDEBus = type { %struct.BusState, ptr, ptr, [2 x %struct.IDEState], ptr, i32, i32, ptr, i8, i8, ptr, i32, i8, i64, i32, %struct.PortioList, %struct.PortioList, ptr }
%struct.BusState = type { %struct.Object, ptr, ptr, ptr, i32, i8, i8, i32, %union.BusChildHead, %struct.BusStateEntry, %struct.ResettableState }
%union.BusChildHead = type { %struct.QTailQLink }
%struct.BusStateEntry = type { ptr, ptr }
%struct.ResettableState = type { i32, i8, i8 }
%struct.IDEState = type { ptr, i8, i32, i32, i32, i32, i32, i32, i32, i64, i32, i32, [512 x i8], i32, [21 x i8], [41 x i8], i8, i64, i8, i8, i32, i8, i8, i8, i8, i8, i8, i8, i8, i8, i8, i8, i8, i8, ptr, [9 x i8], %struct.unreported_events, i8, i8, i8, i8, i8, i32, i32, i32, i32, i32, i32, %struct.BlockAcctCookie, ptr, %struct.QEMUIOVector, %struct.anon.6, i64, i32, %struct.QEMUSGList, i32, ptr, ptr, ptr, ptr, i32, i32, i32, i8, ptr, i32, i8, i32, ptr, i32, i32, i8, i8, i32, i8, ptr, i32 }
%struct.unreported_events = type { i8, i8 }
%struct.BlockAcctCookie = type { i64, i64, i32 }
%struct.anon.6 = type { ptr }
%struct.QEMUSGList = type { ptr, i32, i32, i64, ptr, ptr }
%struct.PortioList = type { ptr, ptr, ptr, i32, i32, ptr, ptr, ptr, i8 }
%struct.AHCIPortRegs = type { i32, i32, i32, i32, i32, i32, i32, i32, i32, i32, i32, i32, i32, i32, i32, i32 }
%struct.NCQTransferState = type { ptr, ptr, ptr, %struct.QEMUSGList, %struct.BlockAcctCookie, i32, i64, i8, i8, i8, i8, i8 }
%struct.MemReentrancyGuard = type { i8 }
%struct.timeval = type { i64, i64 }

@.str.3 = private unnamed_addr constant [22 x i8] c"../qemu/hw/ide/ahci.c\00", align 1
@trace_events_enabled_count = external global i32, align 4
@message_with_timestamp = external global i8, align 1
@qemu_loglevel = external global i32, align 4
@__func__.ahci_trigger_irq = private unnamed_addr constant [17 x i8] c"ahci_trigger_irq\00", align 1
@.str.84 = private unnamed_addr constant [22 x i8] c"(unsigned)irqbit < 32\00", align 1
@_TRACE_AHCI_TRIGGER_IRQ_DSTATE = external global i16, align 2
@.str.85 = private unnamed_addr constant [117 x i8] c"%d@%zu.%06zu:ahci_trigger_irq ahci(%p)[%d]: trigger irq +%s (0x%08x); irqstat: 0x%08x --> 0x%08x; effective: 0x%08x\0A\00", align 1
@.str.86 = private unnamed_addr constant [104 x i8] c"ahci_trigger_irq ahci(%p)[%d]: trigger irq +%s (0x%08x); irqstat: 0x%08x --> 0x%08x; effective: 0x%08x\0A\00", align 1

; Function Attrs: inlinehint nounwind sspstrong uwtable
define internal zeroext i1 @qemu_loglevel_mask(i32 noundef %0) #7 {
  %2 = alloca i32, align 4
  store i32 %0, ptr %2, align 4
  %3 = load i32, ptr @qemu_loglevel, align 4
  %4 = load i32, ptr %2, align 4
  %5 = and i32 %3, %4
  %6 = icmp ne i32 %5, 0
  ret i1 %6
}

; Function Attrs: inlinehint nounwind sspstrong uwtable
define internal void @_nocheck__trace_ahci_trigger_irq(ptr noundef %0, i32 noundef %1, ptr noundef %2, i32 noundef %3, i32 noundef %4, i32 noundef %5, i32 noundef %6) #7 {
  %8 = alloca ptr, align 8
  %9 = alloca i32, align 4
  %10 = alloca ptr, align 8
  %11 = alloca i32, align 4
  %12 = alloca i32, align 4
  %13 = alloca i32, align 4
  %14 = alloca i32, align 4
  %15 = alloca %struct.timeval, align 8
  store ptr %0, ptr %8, align 8
  store i32 %1, ptr %9, align 4
  store ptr %2, ptr %10, align 8
  store i32 %3, ptr %11, align 4
  store i32 %4, ptr %12, align 4
  store i32 %5, ptr %13, align 4
  store i32 %6, ptr %14, align 4
  %16 = load i32, ptr @trace_events_enabled_count, align 4
  %17 = icmp ne i32 %16, 0
  %18 = xor i1 %17, true
  %19 = xor i1 %18, true
  %20 = zext i1 %19 to i32
  %21 = sext i32 %20 to i64
  %22 = call i64 @llvm.expect.i64(i64 %21, i64 0)
  %23 = icmp ne i64 %22, 0
  br i1 %23, label %24, label %56

24:                                               ; preds = %7
  %25 = load i16, ptr @_TRACE_AHCI_TRIGGER_IRQ_DSTATE, align 2
  %26 = zext i16 %25 to i32
  %27 = icmp ne i32 %26, 0
  br i1 %27, label %28, label %56

28:                                               ; preds = %24
  %29 = call zeroext i1 @qemu_loglevel_mask(i32 noundef 32768)
  br i1 %29, label %30, label %56

30:                                               ; preds = %28
  %31 = load i8, ptr @message_with_timestamp, align 1, !range !11, !noundef !12
  %32 = trunc i8 %31 to i1
  br i1 %32, label %33, label %47

33:                                               ; preds = %30
  call void @llvm.lifetime.start.p0(i64 16, ptr %15) #15
  call void @llvm.memset.p0.i64(ptr align 8 %15, i8 0, i64 16, i1 false), !annotation !4
  %34 = call i32 @gettimeofday(ptr noundef %15, ptr noundef null) #15
  %35 = call i32 @qemu_get_thread_id()
  %36 = getelementptr inbounds nuw %struct.timeval, ptr %15, i32 0, i32 0
  %37 = load i64, ptr %36, align 8
  %38 = getelementptr inbounds nuw %struct.timeval, ptr %15, i32 0, i32 1
  %39 = load i64, ptr %38, align 8
  %40 = load ptr, ptr %8, align 8
  %41 = load i32, ptr %9, align 4
  %42 = load ptr, ptr %10, align 8
  %43 = load i32, ptr %11, align 4
  %44 = load i32, ptr %12, align 4
  %45 = load i32, ptr %13, align 4
  %46 = load i32, ptr %14, align 4
  call void (ptr, ...) @qemu_log(ptr noundef @.str.85, i32 noundef %35, i64 noundef %37, i64 noundef %39, ptr noundef %40, i32 noundef %41, ptr noundef %42, i32 noundef %43, i32 noundef %44, i32 noundef %45, i32 noundef %46)
  call void @llvm.lifetime.end.p0(i64 16, ptr %15) #15
  br label %55

47:                                               ; preds = %30
  %48 = load ptr, ptr %8, align 8
  %49 = load i32, ptr %9, align 4
  %50 = load ptr, ptr %10, align 8
  %51 = load i32, ptr %11, align 4
  %52 = load i32, ptr %12, align 4
  %53 = load i32, ptr %13, align 4
  %54 = load i32, ptr %14, align 4
  call void (ptr, ...) @qemu_log(ptr noundef @.str.86, ptr noundef %48, i32 noundef %49, ptr noundef %50, i32 noundef %51, i32 noundef %52, i32 noundef %53, i32 noundef %54)
  br label %55

55:                                               ; preds = %47, %33
  br label %56

56:                                               ; preds = %55, %28, %24, %7
  ret void
}

; Function Attrs: inlinehint nounwind sspstrong uwtable
define internal void @trace_ahci_trigger_irq(ptr noundef %0, i32 noundef %1, ptr noundef %2, i32 noundef %3, i32 noundef %4, i32 noundef %5, i32 noundef %6) #7 {
  %8 = alloca ptr, align 8
  %9 = alloca i32, align 4
  %10 = alloca ptr, align 8
  %11 = alloca i32, align 4
  %12 = alloca i32, align 4
  %13 = alloca i32, align 4
  %14 = alloca i32, align 4
  store ptr %0, ptr %8, align 8
  store i32 %1, ptr %9, align 4
  store ptr %2, ptr %10, align 8
  store i32 %3, ptr %11, align 4
  store i32 %4, ptr %12, align 4
  store i32 %5, ptr %13, align 4
  store i32 %6, ptr %14, align 4
  %15 = load ptr, ptr %8, align 8
  %16 = load i32, ptr %9, align 4
  %17 = load ptr, ptr %10, align 8
  %18 = load i32, ptr %11, align 4
  %19 = load i32, ptr %12, align 4
  %20 = load i32, ptr %13, align 4
  %21 = load i32, ptr %14, align 4
  call void @_nocheck__trace_ahci_trigger_irq(ptr noundef %15, i32 noundef %16, ptr noundef %17, i32 noundef %18, i32 noundef %19, i32 noundef %20, i32 noundef %21)
  ret void
}

; Function Attrs: nounwind sspstrong uwtable
define internal void @ahci_trigger_irq(ptr noundef %0, ptr noundef %1, i32 noundef %2) #0 {
  %4 = alloca ptr, align 8
  %5 = alloca ptr, align 8
  %6 = alloca i32, align 4
  %7 = alloca i32, align 4
  %8 = alloca i32, align 4
  %9 = alloca i32, align 4
  %10 = alloca i32, align 4
  store ptr %0, ptr %4, align 8
  store ptr %1, ptr %5, align 8
  store i32 %2, ptr %6, align 4
  br label %11

11:                                               ; preds = %3
  call void @llvm.lifetime.start.p0(i64 4, ptr %7) #15
  store i32 0, ptr %7, align 4, !annotation !4
  %12 = load i32, ptr %6, align 4
  %13 = icmp ult i32 %12, 32
  br i1 %13, label %14, label %15

14:                                               ; preds = %11
  store i32 1, ptr %7, align 4
  br label %16

15:                                               ; preds = %11
  store i32 0, ptr %7, align 4
  br label %16

16:                                               ; preds = %15, %14
  %17 = load i32, ptr %7, align 4
  store i32 %17, ptr %8, align 4
  call void @llvm.lifetime.end.p0(i64 4, ptr %7) #15
  %18 = load i32, ptr %8, align 4
  %19 = sext i32 %18 to i64
  %20 = call i64 @llvm.expect.i64(i64 %19, i64 1)
  %21 = icmp ne i64 %20, 0
  br i1 %21, label %22, label %23

22:                                               ; preds = %16
  br label %24

23:                                               ; preds = %16
  call void @g_assertion_message_expr(ptr noundef null, ptr noundef @.str.3, i32 noundef 201, ptr noundef @__func__.ahci_trigger_irq, ptr noundef @.str.84) #19
  unreachable

24:                                               ; preds = %22
  br label %25

25:                                               ; preds = %24
  call void @llvm.lifetime.start.p0(i64 4, ptr %9) #15
  %26 = load i32, ptr %6, align 4
  %27 = shl i32 1, %26
  store i32 %27, ptr %9, align 4
  call void @llvm.lifetime.start.p0(i64 4, ptr %10) #15
  %28 = load ptr, ptr %5, align 8
  %29 = getelementptr inbounds nuw %struct.AHCIDevice, ptr %28, i32 0, i32 5
  %30 = getelementptr inbounds nuw %struct.AHCIPortRegs, ptr %29, i32 0, i32 4
  %31 = load i32, ptr %30, align 4
  %32 = load i32, ptr %9, align 4
  %33 = or i32 %31, %32
  store i32 %33, ptr %10, align 4
  %34 = load ptr, ptr %4, align 8
  %35 = load ptr, ptr %5, align 8
  %36 = getelementptr inbounds nuw %struct.AHCIDevice, ptr %35, i32 0, i32 2
  %37 = load i32, ptr %36, align 8
  %38 = load i32, ptr %6, align 4
  %39 = zext i32 %38 to i64
  %40 = getelementptr inbounds nuw [32 x ptr], ptr @AHCIPortIRQ_lookup, i64 0, i64 %39
  %41 = load ptr, ptr %40, align 8
  %42 = load i32, ptr %9, align 4
  %43 = load ptr, ptr %5, align 8
  %44 = getelementptr inbounds nuw %struct.AHCIDevice, ptr %43, i32 0, i32 5
  %45 = getelementptr inbounds nuw %struct.AHCIPortRegs, ptr %44, i32 0, i32 4
  %46 = load i32, ptr %45, align 4
  %47 = load i32, ptr %10, align 4
  %48 = load i32, ptr %10, align 4
  %49 = load ptr, ptr %5, align 8
  %50 = getelementptr inbounds nuw %struct.AHCIDevice, ptr %49, i32 0, i32 5
  %51 = getelementptr inbounds nuw %struct.AHCIPortRegs, ptr %50, i32 0, i32 5
  %52 = load i32, ptr %51, align 4
  %53 = and i32 %48, %52
  call void @trace_ahci_trigger_irq(ptr noundef %34, i32 noundef %37, ptr noundef %41, i32 noundef %42, i32 noundef %46, i32 noundef %47, i32 noundef %53)
  %54 = load i32, ptr %10, align 4
  %55 = load ptr, ptr %5, align 8
  %56 = getelementptr inbounds nuw %struct.AHCIDevice, ptr %55, i32 0, i32 5
  %57 = getelementptr inbounds nuw %struct.AHCIPortRegs, ptr %56, i32 0, i32 4
  store i32 %54, ptr %57, align 4
  %58 = load ptr, ptr %4, align 8
  call void @ahci_check_irq(ptr noundef %58)
  call void @llvm.lifetime.end.p0(i64 4, ptr %10) #15
  call void @llvm.lifetime.end.p0(i64 4, ptr %9) #15
  ret void
}