; Function Attrs: nounwind sspstrong uwtable
define internal fastcc void @ahci_trigger_irq(ptr noundef %0, ptr noundef captures(none) %1, i32 noundef range(i32 0, 31) %2) unnamed_addr #0 {
  %4 = alloca %struct.timeval, align 8
  %5 = shl nuw nsw i32 1, %2
  %6 = getelementptr inbounds nuw i8, ptr %1, i64 2388
  %7 = load i32, ptr %6, align 4
  %8 = or i32 %7, %5
  %9 = getelementptr inbounds nuw i8, ptr %1, i64 2360
  %10 = load i32, ptr %9, align 8
  %11 = zext nneg i32 %2 to i64
  %12 = getelementptr inbounds nuw [32 x ptr], ptr @AHCIPortIRQ_lookup, i64 0, i64 %11
  %13 = load ptr, ptr %12, align 8
  %14 = getelementptr inbounds nuw i8, ptr %1, i64 2392
  %15 = load i32, ptr %14, align 4
  %16 = and i32 %15, %8
  %17 = load i32, ptr @trace_events_enabled_count, align 4
  %.not.i.i = icmp eq i32 %17, 0
  br i1 %.not.i.i, label %trace_ahci_trigger_irq.exit, label %18, !prof !7

18:                                               ; preds = %3
  %19 = load i16, ptr @_TRACE_AHCI_TRIGGER_IRQ_DSTATE, align 2
  %.not13.i.i = icmp eq i16 %19, 0
  br i1 %.not13.i.i, label %trace_ahci_trigger_irq.exit, label %20

20:                                               ; preds = %18
  %21 = load i32, ptr @qemu_loglevel, align 4
  %22 = and i32 %21, 32768
  %.not14.i.i = icmp eq i32 %22, 0
  br i1 %.not14.i.i, label %trace_ahci_trigger_irq.exit, label %23

23:                                               ; preds = %20
  %24 = load i8, ptr @message_with_timestamp, align 1, !range !9, !noundef !10
  %25 = trunc nuw i8 %24 to i1
  br i1 %25, label %26, label %32

26:                                               ; preds = %23
  call void @llvm.lifetime.start.p0(i64 16, ptr nonnull %4) #14
  call void @llvm.memset.p0.i64(ptr noundef nonnull align 8 dereferenceable(16) %4, i8 0, i64 16, i1 false), !annotation !11
  %27 = call i32 @gettimeofday(ptr noundef nonnull %4, ptr noundef null) #14
  %28 = tail call i32 @qemu_get_thread_id() #14
  %29 = load i64, ptr %4, align 8
  %30 = getelementptr inbounds nuw i8, ptr %4, i64 8
  %31 = load i64, ptr %30, align 8
  tail call void (ptr, ...) @qemu_log(ptr noundef nonnull @.str.85, i32 noundef %28, i64 noundef %29, i64 noundef %31, ptr noundef %0, i32 noundef %10, ptr noundef %13, i32 noundef range(i32 1, 1073741825) %5, i32 noundef %7, i32 noundef range(i32 1, 0) %8, i32 noundef %16) #14
  call void @llvm.lifetime.end.p0(i64 16, ptr nonnull %4) #14
  br label %trace_ahci_trigger_irq.exit

32:                                               ; preds = %23
  tail call void (ptr, ...) @qemu_log(ptr noundef nonnull @.str.86, ptr noundef %0, i32 noundef %10, ptr noundef %13, i32 noundef range(i32 1, 1073741825) %5, i32 noundef %7, i32 noundef range(i32 1, 0) %8, i32 noundef %16) #14
  br label %trace_ahci_trigger_irq.exit

trace_ahci_trigger_irq.exit:                      ; preds = %3, %18, %20, %26, %32
  store i32 %8, ptr %6, align 4
  tail call fastcc void @ahci_check_irq(ptr noundef %0)
  ret void
}